; Function Attrs: null_pointer_is_valid sspstrong uwtable
define internal void @protobuf_udp_message_types_udp_port_range_set_cb(ptr noundef %0, ptr noundef %1, i32 noundef %2, ptr readnone captures(none) %3, ptr noundef %4) #0 {
  %6 = zext i32 %2 to i64
  %7 = tail call noalias ptr @g_strndup(ptr noundef %1, i64 noundef %6)
  %8 = ptrtoint ptr %4 to i64
  %9 = trunc i64 %8 to i32
  %10 = tail call i32 @range_convert_str(ptr noundef null, ptr noundef %0, ptr noundef %7, i32 noundef %9)
  tail call void @g_free(ptr noundef %7)
  ret void
}